; ModuleID = '23/494.cpp'
source_filename = "23/494.cpp"
target datalayout = "e-m:e-p270:32:32-p271:32:32-p272:64:64-i64:64-f80:128-n8:16:32:64-S128"
target triple = "x86_64-pc-linux-gnu"

%"class.std::ios_base::Init" = type { i8 }
%"class.std::basic_ostream" = type { i32 (...)**, %"class.std::basic_ios" }
%"class.std::basic_ios" = type { %"class.std::ios_base", %"class.std::basic_ostream"*, i8, i8, %"class.std::basic_streambuf"*, %"class.std::ctype"*, %"class.std::num_put"*, %"class.std::num_get"* }
%"class.std::ios_base" = type { i32 (...)**, i64, i64, i32, i32, i32, %"struct.std::ios_base::_Callback_list"*, %"struct.std::ios_base::_Words", [8 x %"struct.std::ios_base::_Words"], i32, %"struct.std::ios_base::_Words"*, %"class.std::locale" }
%"struct.std::ios_base::_Callback_list" = type { %"struct.std::ios_base::_Callback_list"*, void (i32, %"class.std::ios_base"*, i32)*, i32, i32 }
%"struct.std::ios_base::_Words" = type { i8*, i64 }
%"class.std::locale" = type { %"class.std::locale::_Impl"* }
%"class.std::locale::_Impl" = type { i32, %"class.std::locale::facet"**, i64, %"class.std::locale::facet"**, i8** }
%"class.std::locale::facet" = type <{ i32 (...)**, i32, [4 x i8] }>
%"class.std::basic_streambuf" = type { i32 (...)**, i8*, i8*, i8*, i8*, i8*, i8*, %"class.std::locale" }
%"class.std::ctype" = type <{ %"class.std::locale::facet.base", [4 x i8], %struct.__locale_struct*, i8, [7 x i8], i32*, i32*, i16*, i8, [256 x i8], [256 x i8], i8, [6 x i8] }>
%"class.std::locale::facet.base" = type <{ i32 (...)**, i32 }>
%struct.__locale_struct = type { [13 x %struct.__locale_data*], i16*, i32*, i32*, [13 x i8*] }
%struct.__locale_data = type opaque
%"class.std::num_put" = type { %"class.std::locale::facet.base", [4 x i8] }
%"class.std::num_get" = type { %"class.std::locale::facet.base", [4 x i8] }

@_ZStL8__ioinit = internal global %"class.std::ios_base::Init" zeroinitializer, align 1
@__dso_handle = external hidden global i8
@_ZSt4cout = external dso_local global %"class.std::basic_ostream", align 8
@llvm.global_ctors = appending global [1 x { i32, void ()*, i8* }] [{ i32, void ()*, i8* } { i32 65535, void ()* @_GLOBAL__sub_I_494.cpp, i8* null }]

; Function Attrs: noinline uwtable
define internal void @__cxx_global_var_init() #0 section ".text.startup" {
  call void @_ZNSt8ios_base4InitC1Ev(%"class.std::ios_base::Init"* @_ZStL8__ioinit)
  %1 = call i32 @__cxa_atexit(void (i8*)* bitcast (void (%"class.std::ios_base::Init"*)* @_ZNSt8ios_base4InitD1Ev to void (i8*)*), i8* getelementptr inbounds (%"class.std::ios_base::Init", %"class.std::ios_base::Init"* @_ZStL8__ioinit, i32 0, i32 0), i8* @__dso_handle) #3
  ret void
}

declare dso_local void @_ZNSt8ios_base4InitC1Ev(%"class.std::ios_base::Init"*) unnamed_addr #1

; Function Attrs: nounwind
declare dso_local void @_ZNSt8ios_base4InitD1Ev(%"class.std::ios_base::Init"*) unnamed_addr #2

; Function Attrs: nounwind
declare dso_local i32 @__cxa_atexit(void (i8*)*, i8*, i8*) #3

; Function Attrs: noinline norecurse uwtable
define dso_local i32 @main() #4 {
  %1 = alloca i32, align 4
  %2 = alloca i32, align 4
  %3 = alloca i32, align 4
  %4 = alloca i32, align 4
  %5 = alloca [1000 x i32], align 16
  %6 = alloca [1000 x [130 x i8]], align 16
  %7 = alloca i8, align 1
  store i32 0, i32* %1, align 4
  store i32 0, i32* %2, align 4
  %8 = bitcast [1000 x i32]* %5 to i8*
  call void @llvm.memset.p0i8.i64(i8* align 16 %8, i8 0, i64 4000, i1 false)
  %9 = call i32 @getchar()
  %10 = trunc i32 %9 to i8
  store i8 %10, i8* %7, align 1
  br label %11

11:                                               ; preds = %78, %0
  %12 = load i8, i8* %7, align 1
  %13 = sext i8 %12 to i32
  %14 = icmp sgt i32 %13, 96
  br i1 %14, label %15, label %19

15:                                               ; preds = %11
  %16 = load i8, i8* %7, align 1
  %17 = sext i8 %16 to i32
  %18 = icmp slt i32 %17, 123
  br i1 %18, label %29, label %19

19:                                               ; preds = %15, %11
  %20 = load i8, i8* %7, align 1
  %21 = sext i8 %20 to i32
  %22 = icmp sgt i32 %21, 64
  br i1 %22, label %23, label %27

23:                                               ; preds = %19
  %24 = load i8, i8* %7, align 1
  %25 = sext i8 %24 to i32
  %26 = icmp slt i32 %25, 91
  br label %27

27:                                               ; preds = %23, %19
  %28 = phi i1 [ false, %19 ], [ %26, %23 ]
  br label %29

29:                                               ; preds = %27, %15
  %30 = phi i1 [ true, %15 ], [ %28, %27 ]
  br i1 %30, label %31, label %81

31:                                               ; preds = %29
  br label %32

32:                                               ; preds = %52, %31
  %33 = load i8, i8* %7, align 1
  %34 = sext i8 %33 to i32
  %35 = icmp sgt i32 %34, 96
  br i1 %35, label %36, label %40

36:                                               ; preds = %32
  %37 = load i8, i8* %7, align 1
  %38 = sext i8 %37 to i32
  %39 = icmp slt i32 %38, 123
  br i1 %39, label %50, label %40

40:                                               ; preds = %36, %32
  %41 = load i8, i8* %7, align 1
  %42 = sext i8 %41 to i32
  %43 = icmp sgt i32 %42, 64
  br i1 %43, label %44, label %48

44:                                               ; preds = %40
  %45 = load i8, i8* %7, align 1
  %46 = sext i8 %45 to i32
  %47 = icmp slt i32 %46, 91
  br label %48

48:                                               ; preds = %44, %40
  %49 = phi i1 [ false, %40 ], [ %47, %44 ]
  br label %50

50:                                               ; preds = %48, %36
  %51 = phi i1 [ true, %36 ], [ %49, %48 ]
  br i1 %51, label %52, label %70

52:                                               ; preds = %50
  %53 = load i8, i8* %7, align 1
  %54 = load i32, i32* %2, align 4
  %55 = sext i32 %54 to i64
  %56 = getelementptr inbounds [1000 x [130 x i8]], [1000 x [130 x i8]]* %6, i64 0, i64 %55
  %57 = load i32, i32* %2, align 4
  %58 = sext i32 %57 to i64
  %59 = getelementptr inbounds [1000 x i32], [1000 x i32]* %5, i64 0, i64 %58
  %60 = load i32, i32* %59, align 4
  %61 = sext i32 %60 to i64
  %62 = getelementptr inbounds [130 x i8], [130 x i8]* %56, i64 0, i64 %61
  store i8 %53, i8* %62, align 1
  %63 = load i32, i32* %2, align 4
  %64 = sext i32 %63 to i64
  %65 = getelementptr inbounds [1000 x i32], [1000 x i32]* %5, i64 0, i64 %64
  %66 = load i32, i32* %65, align 4
  %67 = add nsw i32 %66, 1
  store i32 %67, i32* %65, align 4
  %68 = call i32 @getchar()
  %69 = trunc i32 %68 to i8
  store i8 %69, i8* %7, align 1
  br label %32

70:                                               ; preds = %50
  br label %71

71:                                               ; preds = %75, %70
  %72 = load i8, i8* %7, align 1
  %73 = sext i8 %72 to i32
  %74 = icmp eq i32 %73, 32
  br i1 %74, label %75, label %78

75:                                               ; preds = %71
  %76 = call i32 @getchar()
  %77 = trunc i32 %76 to i8
  store i8 %77, i8* %7, align 1
  br label %71

78:                                               ; preds = %71
  %79 = load i32, i32* %2, align 4
  %80 = add nsw i32 %79, 1
  store i32 %80, i32* %2, align 4
  br label %11

81:                                               ; preds = %29
  %82 = load i32, i32* %2, align 4
  %83 = sub nsw i32 %82, 1
  store i32 %83, i32* %3, align 4
  br label %84

84:                                               ; preds = %109, %81
  %85 = load i32, i32* %3, align 4
  %86 = icmp sgt i32 %85, 0
  br i1 %86, label %87, label %112

87:                                               ; preds = %84
  store i32 0, i32* %4, align 4
  br label %88

88:                                               ; preds = %104, %87
  %89 = load i32, i32* %4, align 4
  %90 = load i32, i32* %3, align 4
  %91 = sext i32 %90 to i64
  %92 = getelementptr inbounds [1000 x i32], [1000 x i32]* %5, i64 0, i64 %91
  %93 = load i32, i32* %92, align 4
  %94 = icmp slt i32 %89, %93
  br i1 %94, label %95, label %107

95:                                               ; preds = %88
  %96 = load i32, i32* %3, align 4
  %97 = sext i32 %96 to i64
  %98 = getelementptr inbounds [1000 x [130 x i8]], [1000 x [130 x i8]]* %6, i64 0, i64 %97
  %99 = load i32, i32* %4, align 4
  %100 = sext i32 %99 to i64
  %101 = getelementptr inbounds [130 x i8], [130 x i8]* %98, i64 0, i64 %100
  %102 = load i8, i8* %101, align 1
  %103 = call dereferenceable(272) %"class.std::basic_ostream"* @_ZStlsISt11char_traitsIcEERSt13basic_ostreamIcT_ES5_c(%"class.std::basic_ostream"* dereferenceable(272) @_ZSt4cout, i8 signext %102)
  br label %104

104:                                              ; preds = %95
  %105 = load i32, i32* %4, align 4
  %106 = add nsw i32 %105, 1
  store i32 %106, i32* %4, align 4
  br label %88

107:                                              ; preds = %88
  %108 = call dereferenceable(272) %"class.std::basic_ostream"* @_ZStlsISt11char_traitsIcEERSt13basic_ostreamIcT_ES5_c(%"class.std::basic_ostream"* dereferenceable(272) @_ZSt4cout, i8 signext 32)
  br label %109

109:                                              ; preds = %107
  %110 = load i32, i32* %3, align 4
  %111 = add nsw i32 %110, -1
  store i32 %111, i32* %3, align 4
  br label %84

112:                                              ; preds = %84
  store i32 0, i32* %4, align 4
  br label %113

113:                                              ; preds = %125, %112
  %114 = load i32, i32* %4, align 4
  %115 = getelementptr inbounds [1000 x i32], [1000 x i32]* %5, i64 0, i64 0
  %116 = load i32, i32* %115, align 16
  %117 = icmp slt i32 %114, %116
  br i1 %117, label %118, label %128

118:                                              ; preds = %113
  %119 = getelementptr inbounds [1000 x [130 x i8]], [1000 x [130 x i8]]* %6, i64 0, i64 0
  %120 = load i32, i32* %4, align 4
  %121 = sext i32 %120 to i64
  %122 = getelementptr inbounds [130 x i8], [130 x i8]* %119, i64 0, i64 %121
  %123 = load i8, i8* %122, align 1
  %124 = call dereferenceable(272) %"class.std::basic_ostream"* @_ZStlsISt11char_traitsIcEERSt13basic_ostreamIcT_ES5_c(%"class.std::basic_ostream"* dereferenceable(272) @_ZSt4cout, i8 signext %123)
  br label %125

125:                                              ; preds = %118
  %126 = load i32, i32* %4, align 4
  %127 = add nsw i32 %126, 1
  store i32 %127, i32* %4, align 4
  br label %113

128:                                              ; preds = %113
  ret i32 0
}

; Function Attrs: argmemonly nounwind willreturn
declare void @llvm.memset.p0i8.i64(i8* nocapture writeonly, i8, i64, i1 immarg) #5

declare dso_local i32 @getchar() #1

declare dso_local dereferenceable(272) %"class.std::basic_ostream"* @_ZStlsISt11char_traitsIcEERSt13basic_ostreamIcT_ES5_c(%"class.std::basic_ostream"* dereferenceable(272), i8 signext) #1

; Function Attrs: noinline uwtable
define internal void @_GLOBAL__sub_I_494.cpp() #0 section ".text.startup" {
  call void @__cxx_global_var_init()
  ret void
}


!llvm.module.flags = !{!0}
!llvm.ident = !{!1}

!0 = !{i32 1, !"wchar_size", i32 4}
!1 = !{!"clang version 10.0.0-4ubuntu1 "}
